; Function Attrs: mustprogress nofree norecurse nosync nounwind willreturn memory(argmem: read) uwtable
define i32 @ures_getSize_75(ptr noundef readonly %resB) local_unnamed_addr #9 {
entry:
  %cmp = icmp eq ptr %resB, null
  br i1 %cmp, label %return, label %if.end

if.end:                                           ; preds = %entry
  %fSize = getelementptr inbounds i8, ptr %resB, i64 128
  %0 = load i32, ptr %fSize, align 8
  br label %return

return:                                           ; preds = %entry, %if.end
  %retval.0 = phi i32 [ %0, %if.end ], [ 0, %entry ]
  ret i32 %retval.0
}